; ModuleID = '34/2078.c'
source_filename = "34/2078.c"
target datalayout = "e-m:e-p270:32:32-p271:32:32-p272:64:64-i64:64-f80:128-n8:16:32:64-S128"
target triple = "x86_64-pc-linux-gnu"

@.str = private unnamed_addr constant [3 x i8] c"%d\00", align 1
@.str.1 = private unnamed_addr constant [8 x i8] c"%d/2=%d\00", align 1
@.str.2 = private unnamed_addr constant [9 x i8] c"\0A%d/2=%d\00", align 1
@.str.3 = private unnamed_addr constant [10 x i8] c"%d*3+1=%d\00", align 1
@.str.4 = private unnamed_addr constant [11 x i8] c"\0A%d*3+1=%d\00", align 1
@.str.5 = private unnamed_addr constant [5 x i8] c"\0AEnd\00", align 1

; Function Attrs: noinline nounwind uwtable
define dso_local i32 @main() #0 {
  %1 = alloca i32, align 4
  %2 = alloca i32, align 4
  %3 = alloca i32, align 4
  %4 = alloca i32, align 4
  store i32 0, i32* %1, align 4
  %5 = call i32 (i8*, ...) @__isoc99_scanf(i8* getelementptr inbounds ([3 x i8], [3 x i8]* @.str, i64 0, i64 0), i32* %2)
  %6 = load i32, i32* %2, align 4
  store i32 %6, i32* %3, align 4
  store i32 0, i32* %4, align 4
  br label %7

7:                                                ; preds = %58, %0
  %8 = load i32, i32* %3, align 4
  %9 = icmp ne i32 %8, 1
  br i1 %9, label %10, label %61

10:                                               ; preds = %7
  %11 = load i32, i32* %2, align 4
  %12 = srem i32 %11, 2
  %13 = icmp eq i32 %12, 0
  br i1 %13, label %14, label %32

14:                                               ; preds = %10
  %15 = load i32, i32* %2, align 4
  %16 = sdiv i32 %15, 2
  store i32 %16, i32* %3, align 4
  %17 = load i32, i32* %4, align 4
  %18 = icmp eq i32 %17, 0
  br i1 %18, label %19, label %23

19:                                               ; preds = %14
  %20 = load i32, i32* %2, align 4
  %21 = load i32, i32* %3, align 4
  %22 = call i32 (i8*, ...) @printf(i8* getelementptr inbounds ([8 x i8], [8 x i8]* @.str.1, i64 0, i64 0), i32 %20, i32 %21)
  br label %31

23:                                               ; preds = %14
  %24 = load i32, i32* %4, align 4
  %25 = icmp ne i32 %24, 0
  br i1 %25, label %26, label %30

26:                                               ; preds = %23
  %27 = load i32, i32* %2, align 4
  %28 = load i32, i32* %3, align 4
  %29 = call i32 (i8*, ...) @printf(i8* getelementptr inbounds ([9 x i8], [9 x i8]* @.str.2, i64 0, i64 0), i32 %27, i32 %28)
  br label %30

30:                                               ; preds = %26, %23
  br label %31

31:                                               ; preds = %30, %19
  br label %56

32:                                               ; preds = %10
  %33 = load i32, i32* %2, align 4
  %34 = srem i32 %33, 2
  %35 = icmp ne i32 %34, 0
  br i1 %35, label %36, label %55

36:                                               ; preds = %32
  %37 = load i32, i32* %2, align 4
  %38 = mul nsw i32 %37, 3
  %39 = add nsw i32 %38, 1
  store i32 %39, i32* %3, align 4
  %40 = load i32, i32* %4, align 4
  %41 = icmp eq i32 %40, 0
  br i1 %41, label %42, label %46

42:                                               ; preds = %36
  %43 = load i32, i32* %2, align 4
  %44 = load i32, i32* %3, align 4
  %45 = call i32 (i8*, ...) @printf(i8* getelementptr inbounds ([10 x i8], [10 x i8]* @.str.3, i64 0, i64 0), i32 %43, i32 %44)
  br label %54

46:                                               ; preds = %36
  %47 = load i32, i32* %4, align 4
  %48 = icmp ne i32 %47, 0
  br i1 %48, label %49, label %53

49:                                               ; preds = %46
  %50 = load i32, i32* %2, align 4
  %51 = load i32, i32* %3, align 4
  %52 = call i32 (i8*, ...) @printf(i8* getelementptr inbounds ([11 x i8], [11 x i8]* @.str.4, i64 0, i64 0), i32 %50, i32 %51)
  br label %53

53:                                               ; preds = %49, %46
  br label %54

54:                                               ; preds = %53, %42
  br label %55

55:                                               ; preds = %54, %32
  br label %56

56:                                               ; preds = %55, %31
  %57 = load i32, i32* %3, align 4
  store i32 %57, i32* %2, align 4
  br label %58

58:                                               ; preds = %56
  %59 = load i32, i32* %4, align 4
  %60 = add nsw i32 %59, 1
  store i32 %60, i32* %4, align 4
  br label %7

61:                                               ; preds = %7
  %62 = call i32 (i8*, ...) @printf(i8* getelementptr inbounds ([5 x i8], [5 x i8]* @.str.5, i64 0, i64 0))
  ret i32 0
}

declare dso_local i32 @__isoc99_scanf(i8*, ...) #1

declare dso_local i32 @printf(i8*, ...) #1


!llvm.module.flags = !{!0}
!llvm.ident = !{!1}

!0 = !{i32 1, !"wchar_size", i32 4}
!1 = !{!"clang version 10.0.0-4ubuntu1 "}
