; ModuleID = 'source-C-CXX/33/2078.c'
source_filename = "source-C-CXX/33/2078.c"
target datalayout = "e-m:e-p270:32:32-p271:32:32-p272:64:64-i64:64-f80:128-n8:16:32:64-S128"
target triple = "x86_64-pc-linux-gnu"

@.str = private unnamed_addr constant [3 x i8] c"%d\00", align 1
@.str.1 = private unnamed_addr constant [8 x i8] c"%d/2=%d\00", align 1
@.str.2 = private unnamed_addr constant [9 x i8] c"\0A%d/2=%d\00", align 1
@.str.3 = private unnamed_addr constant [10 x i8] c"%d*3+1=%d\00", align 1
@.str.4 = private unnamed_addr constant [11 x i8] c"\0A%d*3+1=%d\00", align 1
@.str.5 = private unnamed_addr constant [5 x i8] c"\0AEnd\00", align 1

; Function Attrs: nofree nounwind sspstrong uwtable
define dso_local i32 @main() local_unnamed_addr #0 {
  %1 = alloca i32, align 4
  %2 = bitcast i32* %1 to i8*
  call void @llvm.lifetime.start.p0i8(i64 4, i8* nonnull %2) #3
  %3 = call i32 (i8*, ...) @__isoc99_scanf(i8* getelementptr inbounds ([3 x i8], [3 x i8]* @.str, i64 0, i64 0), i32* nonnull %1)
  %4 = load i32, i32* %1, align 4, !tbaa !5
  %5 = icmp eq i32 %4, 1
  br i1 %5, label %33, label %6

6:                                                ; preds = %0
  %7 = and i32 %4, 1
  %8 = icmp eq i32 %7, 0
  br i1 %8, label %13, label %9

9:                                                ; preds = %6
  %10 = mul nsw i32 %4, 3
  %11 = add nsw i32 %10, 1
  %12 = call i32 (i8*, ...) @printf(i8* nonnull dereferenceable(1) getelementptr inbounds ([10 x i8], [10 x i8]* @.str.3, i64 0, i64 0), i32 %4, i32 %11)
  br label %16

13:                                               ; preds = %6
  %14 = sdiv i32 %4, 2
  %15 = call i32 (i8*, ...) @printf(i8* nonnull dereferenceable(1) getelementptr inbounds ([8 x i8], [8 x i8]* @.str.1, i64 0, i64 0), i32 %4, i32 %14)
  br label %16

16:                                               ; preds = %13, %9
  %17 = phi i32 [ %14, %13 ], [ %11, %9 ]
  store i32 %17, i32* %1, align 4, !tbaa !5
  %18 = icmp eq i32 %17, 1
  br i1 %18, label %33, label %19

19:                                               ; preds = %16, %30
  %20 = phi i32 [ %31, %30 ], [ %17, %16 ]
  %21 = and i32 %20, 1
  %22 = icmp eq i32 %21, 0
  br i1 %22, label %23, label %26

23:                                               ; preds = %19
  %24 = sdiv i32 %20, 2
  %25 = call i32 (i8*, ...) @printf(i8* nonnull dereferenceable(1) getelementptr inbounds ([9 x i8], [9 x i8]* @.str.2, i64 0, i64 0), i32 %20, i32 %24)
  br label %30

26:                                               ; preds = %19
  %27 = mul nsw i32 %20, 3
  %28 = add nsw i32 %27, 1
  %29 = call i32 (i8*, ...) @printf(i8* nonnull dereferenceable(1) getelementptr inbounds ([11 x i8], [11 x i8]* @.str.4, i64 0, i64 0), i32 %20, i32 %28)
  br label %30

30:                                               ; preds = %26, %23
  %31 = phi i32 [ %24, %23 ], [ %28, %26 ]
  store i32 %31, i32* %1, align 4, !tbaa !5
  %32 = icmp eq i32 %31, 1
  br i1 %32, label %33, label %19, !llvm.loop !9

33:                                               ; preds = %30, %16, %0
  %34 = call i32 (i8*, ...) @printf(i8* nonnull dereferenceable(1) getelementptr inbounds ([5 x i8], [5 x i8]* @.str.5, i64 0, i64 0))
  call void @llvm.lifetime.end.p0i8(i64 4, i8* nonnull %2) #3
  ret i32 0
}

; Function Attrs: argmemonly mustprogress nofree nosync nounwind willreturn
declare void @llvm.lifetime.start.p0i8(i64 immarg, i8* nocapture) #1

; Function Attrs: nofree nounwind
declare noundef i32 @__isoc99_scanf(i8* nocapture noundef readonly, ...) local_unnamed_addr #2

; Function Attrs: nofree nounwind
declare noundef i32 @printf(i8* nocapture noundef readonly, ...) local_unnamed_addr #2

; Function Attrs: argmemonly mustprogress nofree nosync nounwind willreturn
declare void @llvm.lifetime.end.p0i8(i64 immarg, i8* nocapture) #1


!llvm.module.flags = !{!0, !1, !2, !3}
!llvm.ident = !{!4}

!0 = !{i32 1, !"wchar_size", i32 4}
!1 = !{i32 7, !"PIC Level", i32 2}
!2 = !{i32 7, !"PIE Level", i32 2}
!3 = !{i32 7, !"uwtable", i32 1}
!4 = !{!"clang version 13.0.0"}
!5 = !{!6, !6, i64 0}
!6 = !{!"int", !7, i64 0}
!7 = !{!"omnipotent char", !8, i64 0}
!8 = !{!"Simple C/C++ TBAA"}
!9 = distinct !{!9, !10, !11}
!10 = !{!"llvm.loop.mustprogress"}
!11 = !{!"llvm.loop.peeled.count", i32 1}
